target datalayout = "e-m:e-p270:32:32-p271:32:32-p272:64:64-i64:64-i128:128-f80:128-n8:16:32:64-S128"
target triple = "x86_64-pc-linux-gnu"

; Function Attrs: nounwind uwtable
define dso_local void @onig_strcpy(ptr noundef %0, ptr noundef %1, ptr noundef %2) #0 {
  %4 = alloca ptr, align 8
  %5 = alloca ptr, align 8
  %6 = alloca ptr, align 8
  %7 = alloca i32, align 4
  store ptr %0, ptr %4, align 8, !tbaa !4
  store ptr %1, ptr %5, align 8, !tbaa !4
  store ptr %2, ptr %6, align 8, !tbaa !4
  call void @llvm.lifetime.start.p0(i64 4, ptr %7) #8
  %8 = load ptr, ptr %6, align 8, !tbaa !4
  %9 = load ptr, ptr %5, align 8, !tbaa !4
  %10 = ptrtoint ptr %8 to i64
  %11 = ptrtoint ptr %9 to i64
  %12 = sub i64 %10, %11
  %13 = trunc i64 %12 to i32
  store i32 %13, ptr %7, align 4, !tbaa !10
  %14 = load i32, ptr %7, align 4, !tbaa !10
  %15 = icmp sgt i32 %14, 0
  br i1 %15, label %16, label %25

16:                                               ; preds = %3
  %17 = load ptr, ptr %4, align 8, !tbaa !4
  %18 = load ptr, ptr %5, align 8, !tbaa !4
  %19 = load i32, ptr %7, align 4, !tbaa !10
  %20 = sext i32 %19 to i64
  call void @llvm.memcpy.p0.p0.i64(ptr align 1 %17, ptr align 1 %18, i64 %20, i1 false)
  %21 = load ptr, ptr %4, align 8, !tbaa !4
  %22 = load i32, ptr %7, align 4, !tbaa !10
  %23 = sext i32 %22 to i64
  %24 = getelementptr inbounds i8, ptr %21, i64 %23
  store i8 0, ptr %24, align 1, !tbaa !12
  br label %25

25:                                               ; preds = %16, %3
  call void @llvm.lifetime.end.p0(i64 4, ptr %7) #8
  ret void
}