; Function Attrs: mustprogress nofree norecurse nosync nounwind willreturn memory(argmem: readwrite) uwtable
define dso_local void @onig_strcpy(ptr noundef writeonly captures(none) %0, ptr noundef %1, ptr noundef %2) local_unnamed_addr #6 {
  %4 = ptrtoint ptr %2 to i64
  %5 = ptrtoint ptr %1 to i64
  %6 = sub i64 %4, %5
  %7 = trunc i64 %6 to i32
  %8 = icmp sgt i32 %7, 0
  br i1 %8, label %9, label %12

9:                                                ; preds = %3
  %10 = and i64 %6, 2147483647
  tail call void @llvm.memcpy.p0.p0.i64(ptr align 1 %0, ptr align 1 %1, i64 %10, i1 false)
  %11 = getelementptr inbounds nuw i8, ptr %0, i64 %10
  store i8 0, ptr %11, align 1, !tbaa !10
  br label %12

12:                                               ; preds = %9, %3
  ret void
}